; ModuleID = '33/3008.c'
source_filename = "33/3008.c"
target datalayout = "e-m:e-p270:32:32-p271:32:32-p272:64:64-i64:64-f80:128-n8:16:32:64-S128"
target triple = "x86_64-pc-linux-gnu"

@.str = private unnamed_addr constant [3 x i8] c"%d\00", align 1
@.str.1 = private unnamed_addr constant [3 x i8] c"%s\00", align 1
@.str.2 = private unnamed_addr constant [4 x i8] c"%s\0A\00", align 1

; Function Attrs: noinline nounwind uwtable
define dso_local i32 @main() #0 {
  %1 = alloca i32, align 4
  %2 = alloca [300 x i8], align 16
  %3 = alloca i8*, align 8
  %4 = alloca i8*, align 8
  %5 = alloca i8*, align 8
  %6 = alloca i8*, align 8
  %7 = alloca i8*, align 8
  %8 = alloca i32, align 4
  %9 = alloca i32, align 4
  %10 = alloca i32, align 4
  %11 = alloca i32, align 4
  store i32 0, i32* %1, align 4
  %12 = call i32 (i8*, ...) @__isoc99_scanf(i8* getelementptr inbounds ([3 x i8], [3 x i8]* @.str, i64 0, i64 0), i32* %8)
  store i32 0, i32* %9, align 4
  br label %13

13:                                               ; preds = %81, %0
  %14 = load i32, i32* %9, align 4
  %15 = load i32, i32* %8, align 4
  %16 = icmp slt i32 %14, %15
  br i1 %16, label %17, label %84

17:                                               ; preds = %13
  %18 = getelementptr inbounds [300 x i8], [300 x i8]* %2, i64 0, i64 0
  %19 = call i32 (i8*, ...) @__isoc99_scanf(i8* getelementptr inbounds ([3 x i8], [3 x i8]* @.str.1, i64 0, i64 0), i8* %18)
  %20 = getelementptr inbounds [300 x i8], [300 x i8]* %2, i64 0, i64 0
  %21 = call i64 @strlen(i8* %20) #3
  %22 = trunc i64 %21 to i32
  store i32 %22, i32* %11, align 4
  store i32 0, i32* %10, align 4
  br label %23

23:                                               ; preds = %75, %17
  %24 = load i32, i32* %10, align 4
  %25 = load i32, i32* %11, align 4
  %26 = icmp slt i32 %24, %25
  br i1 %26, label %27, label %78

27:                                               ; preds = %23
  %28 = load i32, i32* %10, align 4
  %29 = sext i32 %28 to i64
  %30 = getelementptr inbounds [300 x i8], [300 x i8]* %2, i64 0, i64 %29
  %31 = load i8, i8* %30, align 1
  %32 = sext i8 %31 to i32
  %33 = icmp eq i32 %32, 65
  br i1 %33, label %34, label %38

34:                                               ; preds = %27
  %35 = load i32, i32* %10, align 4
  %36 = sext i32 %35 to i64
  %37 = getelementptr inbounds [300 x i8], [300 x i8]* %2, i64 0, i64 %36
  store i8 84, i8* %37, align 1
  br label %74

38:                                               ; preds = %27
  %39 = load i32, i32* %10, align 4
  %40 = sext i32 %39 to i64
  %41 = getelementptr inbounds [300 x i8], [300 x i8]* %2, i64 0, i64 %40
  %42 = load i8, i8* %41, align 1
  %43 = sext i8 %42 to i32
  %44 = icmp eq i32 %43, 84
  br i1 %44, label %45, label %49

45:                                               ; preds = %38
  %46 = load i32, i32* %10, align 4
  %47 = sext i32 %46 to i64
  %48 = getelementptr inbounds [300 x i8], [300 x i8]* %2, i64 0, i64 %47
  store i8 65, i8* %48, align 1
  br label %73

49:                                               ; preds = %38
  %50 = load i32, i32* %10, align 4
  %51 = sext i32 %50 to i64
  %52 = getelementptr inbounds [300 x i8], [300 x i8]* %2, i64 0, i64 %51
  %53 = load i8, i8* %52, align 1
  %54 = sext i8 %53 to i32
  %55 = icmp eq i32 %54, 67
  br i1 %55, label %56, label %60

56:                                               ; preds = %49
  %57 = load i32, i32* %10, align 4
  %58 = sext i32 %57 to i64
  %59 = getelementptr inbounds [300 x i8], [300 x i8]* %2, i64 0, i64 %58
  store i8 71, i8* %59, align 1
  br label %72

60:                                               ; preds = %49
  %61 = load i32, i32* %10, align 4
  %62 = sext i32 %61 to i64
  %63 = getelementptr inbounds [300 x i8], [300 x i8]* %2, i64 0, i64 %62
  %64 = load i8, i8* %63, align 1
  %65 = sext i8 %64 to i32
  %66 = icmp eq i32 %65, 71
  br i1 %66, label %67, label %71

67:                                               ; preds = %60
  %68 = load i32, i32* %10, align 4
  %69 = sext i32 %68 to i64
  %70 = getelementptr inbounds [300 x i8], [300 x i8]* %2, i64 0, i64 %69
  store i8 67, i8* %70, align 1
  br label %71

71:                                               ; preds = %67, %60
  br label %72

72:                                               ; preds = %71, %56
  br label %73

73:                                               ; preds = %72, %45
  br label %74

74:                                               ; preds = %73, %34
  br label %75

75:                                               ; preds = %74
  %76 = load i32, i32* %10, align 4
  %77 = add nsw i32 %76, 1
  store i32 %77, i32* %10, align 4
  br label %23

78:                                               ; preds = %23
  %79 = getelementptr inbounds [300 x i8], [300 x i8]* %2, i64 0, i64 0
  %80 = call i32 (i8*, ...) @printf(i8* getelementptr inbounds ([4 x i8], [4 x i8]* @.str.2, i64 0, i64 0), i8* %79)
  br label %81

81:                                               ; preds = %78
  %82 = load i32, i32* %9, align 4
  %83 = add nsw i32 %82, 1
  store i32 %83, i32* %9, align 4
  br label %13

84:                                               ; preds = %13
  ret i32 0
}

declare dso_local i32 @__isoc99_scanf(i8*, ...) #1

; Function Attrs: nounwind readonly
declare dso_local i64 @strlen(i8*) #2

declare dso_local i32 @printf(i8*, ...) #1


!llvm.module.flags = !{!0}
!llvm.ident = !{!1}

!0 = !{i32 1, !"wchar_size", i32 4}
!1 = !{!"clang version 10.0.0-4ubuntu1 "}
